target datalayout = "e-m:e-p270:32:32-p271:32:32-p272:64:64-i64:64-i128:128-f80:128-n8:16:32:64-S128"
target triple = "x86_64-pc-linux-gnu"

%struct.H5CX_node_t = type { %struct.H5CX_t, ptr }
%struct.H5CX_t = type { i64, ptr, i64, ptr, i64, ptr, i64, ptr, i64, ptr, i64, ptr, i64, i32, i64, i8, ptr, i8, ptr, i8, i32, i8, [3 x double], i8, i64, i8, i32, i8, %struct.H5Z_cb_t, i8, ptr, i8, %struct.H5T_vlen_alloc_info_t, i8, %struct.H5T_conv_cb_t, i8, i32, i8, i8, i8, i32, i8, i8, i32, i8, i8, i32, i8, i32, i8, i64, i8, i8, i8, i8, i8, ptr, i8, ptr, i8, i32, i8, i32, i8, %struct.H5VL_connector_prop_t, i8, ptr, i8 }
%struct.H5Z_cb_t = type { ptr, ptr }
%struct.H5T_vlen_alloc_info_t = type { ptr, ptr, ptr, ptr }
%struct.H5T_conv_cb_t = type { ptr, ptr }
%struct.H5VL_connector_prop_t = type { ptr, ptr }

@H5_libinit_g = external global i8, align 1
@H5_libterm_g = external global i8, align 1
@.str = private unnamed_addr constant [97 x i8] c"generated/home/dtcxzyw/WorkSpace/Projects/compilers/llvm-opt-benchmark/bench/hdf5/hdf5/src/H5G.c\00", align 1
@H5E_FUNC_g = external global i64, align 8
@H5E_CANTINIT_g = external global i64, align 8
@.str.1 = private unnamed_addr constant [30 x i8] c"library initialization failed\00", align 1
@H5G_init_g = external global i8, align 1
@.str.2 = private unnamed_addr constant [32 x i8] c"interface initialization failed\00", align 1
@H5E_CANTSET_g = external global i64, align 8
@.str.3 = private unnamed_addr constant [22 x i8] c"can't set API context\00", align 1
@H5E_SYM_g = external global i64, align 8
@.str.7 = private unnamed_addr constant [9 x i8] c"app_file\00", align 1
@.str.8 = private unnamed_addr constant [9 x i8] c"app_func\00", align 1
@.str.9 = private unnamed_addr constant [9 x i8] c"app_line\00", align 1
@.str.10 = private unnamed_addr constant [7 x i8] c"loc_id\00", align 1
@.str.15 = private unnamed_addr constant [6 x i8] c"es_id\00", align 1
@H5E_CANTINSERT_g = external global i64, align 8
@.str.17 = private unnamed_addr constant [34 x i8] c"can't insert token into event set\00", align 1
@H5E_CANTGET_g = external global i64, align 8
@.str.33 = private unnamed_addr constant [11 x i8] c"group_info\00", align 1
@.str.35 = private unnamed_addr constant [41 x i8] c"can't asynchronously retrieve group info\00", align 1
@.str.37 = private unnamed_addr constant [8 x i8] c"lapl_id\00", align 1
@__func__.H5Gget_info_by_idx_async = private unnamed_addr constant [25 x i8] c"H5Gget_info_by_idx_async\00", align 1
@.str.38 = private unnamed_addr constant [20 x i8] c"*s*sIui*sIiIoh*GIii\00", align 1
@.str.39 = private unnamed_addr constant [11 x i8] c"group_name\00", align 1
@.str.40 = private unnamed_addr constant [9 x i8] c"idx_type\00", align 1
@.str.41 = private unnamed_addr constant [6 x i8] c"order\00", align 1
@.str.42 = private unnamed_addr constant [2 x i8] c"n\00", align 1

; Function Attrs: nounwind uwtable
define i32 @H5Gget_info_by_idx_async(ptr noundef %0, ptr noundef %1, i32 noundef %2, i64 noundef %3, ptr noundef %4, i32 noundef %5, i32 noundef %6, i64 noundef %7, ptr noundef %8, i64 noundef %9, i64 noundef %10) #0 {
  %12 = alloca ptr, align 8
  %13 = alloca ptr, align 8
  %14 = alloca i32, align 4
  %15 = alloca i64, align 8
  %16 = alloca ptr, align 8
  %17 = alloca i32, align 4
  %18 = alloca i32, align 4
  %19 = alloca i64, align 8
  %20 = alloca ptr, align 8
  %21 = alloca i64, align 8
  %22 = alloca i64, align 8
  %23 = alloca ptr, align 8
  %24 = alloca ptr, align 8
  %25 = alloca ptr, align 8
  %26 = alloca i32, align 4
  %27 = alloca %struct.H5CX_node_t, align 8
  %28 = alloca i8, align 1
  %29 = alloca i8, align 1
  store ptr %0, ptr %12, align 8, !tbaa !7
  store ptr %1, ptr %13, align 8, !tbaa !7
  store i32 %2, ptr %14, align 4, !tbaa !20
  store i64 %3, ptr %15, align 8, !tbaa !3
  store ptr %4, ptr %16, align 8, !tbaa !7
  store i32 %5, ptr %17, align 4, !tbaa !20
  store i32 %6, ptr %18, align 4, !tbaa !20
  store i64 %7, ptr %19, align 8, !tbaa !3
  store ptr %8, ptr %20, align 8, !tbaa !27
  store i64 %9, ptr %21, align 8, !tbaa !3
  store i64 %10, ptr %22, align 8, !tbaa !3
  call void @llvm.lifetime.start.p0(i64 8, ptr %23) #5
  store ptr null, ptr %23, align 8, !tbaa !17
  call void @llvm.lifetime.start.p0(i64 8, ptr %24) #5
  store ptr null, ptr %24, align 8, !tbaa !14
  call void @llvm.lifetime.start.p0(i64 8, ptr %25) #5
  store ptr null, ptr %25, align 8, !tbaa !14
  call void @llvm.lifetime.start.p0(i64 4, ptr %26) #5
  store i32 0, ptr %26, align 4, !tbaa !20
  call void @llvm.lifetime.start.p0(i64 480, ptr %27) #5
  call void @llvm.memset.p0.i64(ptr align 8 %27, i8 0, i64 480, i1 false)
  call void @llvm.lifetime.start.p0(i64 1, ptr %28) #5
  store i8 0, ptr %28, align 1, !tbaa !10
  call void @llvm.lifetime.start.p0(i64 1, ptr %29) #5
  store i8 0, ptr %29, align 1, !tbaa !10
  br label %30

30:                                               ; preds = %11
  %31 = load i8, ptr @H5_libinit_g, align 1, !tbaa !10, !range !12, !noundef !13
  %32 = trunc i8 %31 to i1
  br i1 %32, label %37, label %33

33:                                               ; preds = %30
  %34 = load i8, ptr @H5_libterm_g, align 1, !tbaa !10, !range !12, !noundef !13
  %35 = trunc i8 %34 to i1
  %36 = xor i1 %35, true
  br label %37

37:                                               ; preds = %33, %30
  %38 = phi i1 [ false, %30 ], [ %36, %33 ]
  %39 = xor i1 %38, true
  %40 = xor i1 %39, true
  %41 = zext i1 %40 to i32
  %42 = sext i32 %41 to i64
  %43 = call i64 @llvm.expect.i64(i64 %42, i64 0)
  %44 = icmp ne i64 %43, 0
  br i1 %44, label %45, label %74

45:                                               ; preds = %37
  %46 = call i32 @H5_init_library()
  %47 = icmp slt i32 %46, 0
  %48 = xor i1 %47, true
  %49 = xor i1 %48, true
  %50 = zext i1 %49 to i32
  %51 = sext i32 %50 to i64
  %52 = call i64 @llvm.expect.i64(i64 %51, i64 0)
  %53 = icmp ne i64 %52, 0
  br i1 %53, label %54, label %73

54:                                               ; preds = %45
  br label %55

55:                                               ; preds = %54
  br label %56

56:                                               ; preds = %55
  br label %57

57:                                               ; preds = %56
  %58 = load i64, ptr @H5E_FUNC_g, align 8, !tbaa !3
  %59 = load i64, ptr @H5E_CANTINIT_g, align 8, !tbaa !3
  %60 = call i32 (ptr, ptr, i32, i64, i64, ptr, ...) @H5E_printf_stack(ptr noundef @.str, ptr noundef @__func__.H5Gget_info_by_idx_async, i32 noundef 830, i64 noundef %58, i64 noundef %59, ptr noundef @.str.1)
  br label %61

61:                                               ; preds = %57
  br label %62

62:                                               ; preds = %61
  store i8 1, ptr %29, align 1, !tbaa !10
  %63 = load i8, ptr %29, align 1, !tbaa !10, !range !12, !noundef !13
  %64 = trunc i8 %63 to i1
  %65 = zext i1 %64 to i8
  store i8 %65, ptr %29, align 1, !tbaa !10
  br label %66

66:                                               ; preds = %62
  br label %67

67:                                               ; preds = %66
  br label %68

68:                                               ; preds = %67
  store i32 -1, ptr %26, align 4, !tbaa !20
  br label %223

69:                                               ; No predecessors!
  br label %70

70:                                               ; preds = %69
  br label %71

71:                                               ; preds = %70
  br label %72

72:                                               ; preds = %71
  br label %73

73:                                               ; preds = %72, %45
  br label %74

74:                                               ; preds = %73, %37
  %75 = load i8, ptr @H5G_init_g, align 1, !tbaa !10, !range !12, !noundef !13
  %76 = trunc i8 %75 to i1
  br i1 %76, label %81, label %77

77:                                               ; preds = %74
  %78 = load i8, ptr @H5_libterm_g, align 1, !tbaa !10, !range !12, !noundef !13
  %79 = trunc i8 %78 to i1
  %80 = xor i1 %79, true
  br label %81

81:                                               ; preds = %77, %74
  %82 = phi i1 [ false, %74 ], [ %80, %77 ]
  %83 = xor i1 %82, true
  %84 = xor i1 %83, true
  %85 = zext i1 %84 to i32
  %86 = sext i32 %85 to i64
  %87 = call i64 @llvm.expect.i64(i64 %86, i64 0)
  %88 = icmp ne i64 %87, 0
  br i1 %88, label %89, label %112

89:                                               ; preds = %81
  store i8 1, ptr @H5G_init_g, align 1, !tbaa !10
  %90 = call i32 @H5G__init_package()
  %91 = icmp slt i32 %90, 0
  br i1 %91, label %92, label %111

92:                                               ; preds = %89
  store i8 0, ptr @H5G_init_g, align 1, !tbaa !10
  br label %93

93:                                               ; preds = %92
  br label %94

94:                                               ; preds = %93
  br label %95

95:                                               ; preds = %94
  %96 = load i64, ptr @H5E_FUNC_g, align 8, !tbaa !3
  %97 = load i64, ptr @H5E_CANTINIT_g, align 8, !tbaa !3
  %98 = call i32 (ptr, ptr, i32, i64, i64, ptr, ...) @H5E_printf_stack(ptr noundef @.str, ptr noundef @__func__.H5Gget_info_by_idx_async, i32 noundef 830, i64 noundef %96, i64 noundef %97, ptr noundef @.str.2)
  br label %99

99:                                               ; preds = %95
  br label %100

100:                                              ; preds = %99
  store i8 1, ptr %29, align 1, !tbaa !10
  %101 = load i8, ptr %29, align 1, !tbaa !10, !range !12, !noundef !13
  %102 = trunc i8 %101 to i1
  %103 = zext i1 %102 to i8
  store i8 %103, ptr %29, align 1, !tbaa !10
  br label %104

104:                                              ; preds = %100
  br label %105

105:                                              ; preds = %104
  br label %106

106:                                              ; preds = %105
  store i32 -1, ptr %26, align 4, !tbaa !20
  br label %223

107:                                              ; No predecessors!
  br label %108

108:                                              ; preds = %107
  br label %109

109:                                              ; preds = %108
  br label %110

110:                                              ; preds = %109
  br label %111

111:                                              ; preds = %110, %89
  br label %112

112:                                              ; preds = %111, %81
  br label %113

113:                                              ; preds = %112
  br label %114

114:                                              ; preds = %113
  br label %115

115:                                              ; preds = %114
  %116 = call i32 @H5CX_push(ptr noundef %27)
  %117 = icmp slt i32 %116, 0
  %118 = xor i1 %117, true
  %119 = xor i1 %118, true
  %120 = zext i1 %119 to i32
  %121 = sext i32 %120 to i64
  %122 = call i64 @llvm.expect.i64(i64 %121, i64 0)
  %123 = icmp ne i64 %122, 0
  br i1 %123, label %124, label %143

124:                                              ; preds = %115
  br label %125

125:                                              ; preds = %124
  br label %126

126:                                              ; preds = %125
  br label %127

127:                                              ; preds = %126
  %128 = load i64, ptr @H5E_FUNC_g, align 8, !tbaa !3
  %129 = load i64, ptr @H5E_CANTSET_g, align 8, !tbaa !3
  %130 = call i32 (ptr, ptr, i32, i64, i64, ptr, ...) @H5E_printf_stack(ptr noundef @.str, ptr noundef @__func__.H5Gget_info_by_idx_async, i32 noundef 830, i64 noundef %128, i64 noundef %129, ptr noundef @.str.3)
  br label %131

131:                                              ; preds = %127
  br label %132

132:                                              ; preds = %131
  store i8 1, ptr %29, align 1, !tbaa !10
  %133 = load i8, ptr %29, align 1, !tbaa !10, !range !12, !noundef !13
  %134 = trunc i8 %133 to i1
  %135 = zext i1 %134 to i8
  store i8 %135, ptr %29, align 1, !tbaa !10
  br label %136

136:                                              ; preds = %132
  br label %137

137:                                              ; preds = %136
  br label %138

138:                                              ; preds = %137
  store i32 -1, ptr %26, align 4, !tbaa !20
  br label %223

139:                                              ; No predecessors!
  br label %140

140:                                              ; preds = %139
  br label %141

141:                                              ; preds = %140
  br label %142

142:                                              ; preds = %141
  br label %144

143:                                              ; preds = %115
  store i8 1, ptr %28, align 1, !tbaa !10
  br label %144

144:                                              ; preds = %143, %142
  br label %145

145:                                              ; preds = %144
  br label %146

146:                                              ; preds = %145
  %147 = call i32 @H5E_clear_stack()
  %148 = load i64, ptr %22, align 8, !tbaa !3
  %149 = icmp ne i64 0, %148
  br i1 %149, label %150, label %151

150:                                              ; preds = %146
  store ptr %24, ptr %25, align 8, !tbaa !14
  br label %151

151:                                              ; preds = %150, %146
  %152 = load i64, ptr %15, align 8, !tbaa !3
  %153 = load ptr, ptr %16, align 8, !tbaa !7
  %154 = load i32, ptr %17, align 4, !tbaa !20
  %155 = load i32, ptr %18, align 4, !tbaa !20
  %156 = load i64, ptr %19, align 8, !tbaa !3
  %157 = load ptr, ptr %20, align 8, !tbaa !27
  %158 = load i64, ptr %21, align 8, !tbaa !3
  %159 = load ptr, ptr %25, align 8, !tbaa !14
  %160 = call i32 @H5G__get_info_by_idx_api_common(i64 noundef %152, ptr noundef %153, i32 noundef %154, i32 noundef %155, i64 noundef %156, ptr noundef %157, i64 noundef %158, ptr noundef %159, ptr noundef %23)
  %161 = icmp slt i32 %160, 0
  br i1 %161, label %162, label %181

162:                                              ; preds = %151
  br label %163

163:                                              ; preds = %162
  br label %164

164:                                              ; preds = %163
  br label %165

165:                                              ; preds = %164
  %166 = load i64, ptr @H5E_SYM_g, align 8, !tbaa !3
  %167 = load i64, ptr @H5E_CANTGET_g, align 8, !tbaa !3
  %168 = call i32 (ptr, ptr, i32, i64, i64, ptr, ...) @H5E_printf_stack(ptr noundef @.str, ptr noundef @__func__.H5Gget_info_by_idx_async, i32 noundef 839, i64 noundef %166, i64 noundef %167, ptr noundef @.str.35)
  br label %169

169:                                              ; preds = %165
  br label %170

170:                                              ; preds = %169
  store i8 1, ptr %29, align 1, !tbaa !10
  %171 = load i8, ptr %29, align 1, !tbaa !10, !range !12, !noundef !13
  %172 = trunc i8 %171 to i1
  %173 = zext i1 %172 to i8
  store i8 %173, ptr %29, align 1, !tbaa !10
  br label %174

174:                                              ; preds = %170
  br label %175

175:                                              ; preds = %174
  br label %176

176:                                              ; preds = %175
  store i32 -1, ptr %26, align 4, !tbaa !20
  br label %223

177:                                              ; No predecessors!
  br label %178

178:                                              ; preds = %177
  br label %179

179:                                              ; preds = %178
  br label %180

180:                                              ; preds = %179
  br label %181

181:                                              ; preds = %180, %151
  %182 = load ptr, ptr %24, align 8, !tbaa !14
  %183 = icmp ne ptr null, %182
  br i1 %183, label %184, label %222

184:                                              ; preds = %181
  %185 = load i64, ptr %22, align 8, !tbaa !3
  %186 = load ptr, ptr %23, align 8, !tbaa !17
  %187 = call ptr @H5VL_obj_get_connector(ptr noundef %186)
  %188 = load ptr, ptr %24, align 8, !tbaa !14
  %189 = load ptr, ptr %12, align 8, !tbaa !7
  %190 = load ptr, ptr %13, align 8, !tbaa !7
  %191 = load i32, ptr %14, align 4, !tbaa !20
  %192 = load i64, ptr %15, align 8, !tbaa !3
  %193 = load ptr, ptr %16, align 8, !tbaa !7
  %194 = load i32, ptr %17, align 4, !tbaa !20
  %195 = load i32, ptr %18, align 4, !tbaa !20
  %196 = load i64, ptr %19, align 8, !tbaa !3
  %197 = load ptr, ptr %20, align 8, !tbaa !27
  %198 = load i64, ptr %21, align 8, !tbaa !3
  %199 = load i64, ptr %22, align 8, !tbaa !3
  %200 = call i32 (i64, ptr, ptr, ptr, ptr, ...) @H5ES_insert(i64 noundef %185, ptr noundef %187, ptr noundef %188, ptr noundef @__func__.H5Gget_info_by_idx_async, ptr noundef @.str.38, ptr noundef @.str.7, ptr noundef %189, ptr noundef @.str.8, ptr noundef %190, ptr noundef @.str.9, i32 noundef %191, ptr noundef @.str.10, i64 noundef %192, ptr noundef @.str.39, ptr noundef %193, ptr noundef @.str.40, i32 noundef %194, ptr noundef @.str.41, i32 noundef %195, ptr noundef @.str.42, i64 noundef %196, ptr noundef @.str.33, ptr noundef %197, ptr noundef @.str.37, i64 noundef %198, ptr noundef @.str.15, i64 noundef %199)
  %201 = icmp slt i32 %200, 0
  br i1 %201, label %202, label %221

202:                                              ; preds = %184
  br label %203

203:                                              ; preds = %202
  br label %204

204:                                              ; preds = %203
  br label %205

205:                                              ; preds = %204
  %206 = load i64, ptr @H5E_SYM_g, align 8, !tbaa !3
  %207 = load i64, ptr @H5E_CANTINSERT_g, align 8, !tbaa !3
  %208 = call i32 (ptr, ptr, i32, i64, i64, ptr, ...) @H5E_printf_stack(ptr noundef @.str, ptr noundef @__func__.H5Gget_info_by_idx_async, i32 noundef 847, i64 noundef %206, i64 noundef %207, ptr noundef @.str.17)
  br label %209

209:                                              ; preds = %205
  br label %210

210:                                              ; preds = %209
  store i8 1, ptr %29, align 1, !tbaa !10
  %211 = load i8, ptr %29, align 1, !tbaa !10, !range !12, !noundef !13
  %212 = trunc i8 %211 to i1
  %213 = zext i1 %212 to i8
  store i8 %213, ptr %29, align 1, !tbaa !10
  br label %214

214:                                              ; preds = %210
  br label %215

215:                                              ; preds = %214
  br label %216

216:                                              ; preds = %215
  store i32 -1, ptr %26, align 4, !tbaa !20
  br label %223

217:                                              ; No predecessors!
  br label %218

218:                                              ; preds = %217
  br label %219

219:                                              ; preds = %218
  br label %220

220:                                              ; preds = %219
  br label %221

221:                                              ; preds = %220, %184
  br label %222

222:                                              ; preds = %221, %181
  br label %223

223:                                              ; preds = %222, %216, %176, %138, %106, %68
  %224 = load i8, ptr %28, align 1, !tbaa !10, !range !12, !noundef !13
  %225 = trunc i8 %224 to i1
  %226 = xor i1 %225, true
  %227 = xor i1 %226, true
  %228 = zext i1 %227 to i32
  %229 = sext i32 %228 to i64
  %230 = call i64 @llvm.expect.i64(i64 %229, i64 1)
  %231 = icmp ne i64 %230, 0
  br i1 %231, label %232, label %234

232:                                              ; preds = %223
  %233 = call i32 @H5CX_pop(i1 noundef zeroext true)
  store i8 0, ptr %28, align 1, !tbaa !10
  br label %234

234:                                              ; preds = %232, %223
  %235 = load i8, ptr %29, align 1, !tbaa !10, !range !12, !noundef !13
  %236 = trunc i8 %235 to i1
  %237 = xor i1 %236, true
  %238 = xor i1 %237, true
  %239 = zext i1 %238 to i32
  %240 = sext i32 %239 to i64
  %241 = call i64 @llvm.expect.i64(i64 %240, i64 0)
  %242 = icmp ne i64 %241, 0
  br i1 %242, label %243, label %245

243:                                              ; preds = %234
  %244 = call i32 @H5E_dump_api_stack()
  br label %245

245:                                              ; preds = %243, %234
  %246 = load i32, ptr %26, align 4, !tbaa !20
  call void @llvm.lifetime.end.p0(i64 1, ptr %29) #5
  call void @llvm.lifetime.end.p0(i64 1, ptr %28) #5
  call void @llvm.lifetime.end.p0(i64 480, ptr %27) #5
  call void @llvm.lifetime.end.p0(i64 4, ptr %26) #5
  call void @llvm.lifetime.end.p0(i64 8, ptr %25) #5
  call void @llvm.lifetime.end.p0(i64 8, ptr %24) #5
  call void @llvm.lifetime.end.p0(i64 8, ptr %23) #5
  ret i32 %246
}