; Function Attrs: nounwind uwtable
define range(i32 -1, 1) i32 @H5Gget_info_by_idx_async(ptr noundef %0, ptr noundef %1, i32 noundef %2, i64 noundef %3, ptr noundef %4, i32 noundef %5, i32 noundef %6, i64 noundef %7, ptr noundef %8, i64 noundef %9, i64 noundef %10) local_unnamed_addr #0 {
  %12 = alloca ptr, align 8
  %13 = alloca ptr, align 8
  %14 = alloca %struct.H5CX_node_t, align 8
  call void @llvm.lifetime.start.p0(i64 8, ptr nonnull %12) #4
  store ptr null, ptr %12, align 8, !tbaa !15
  call void @llvm.lifetime.start.p0(i64 8, ptr nonnull %13) #4
  store ptr null, ptr %13, align 8, !tbaa !19
  call void @llvm.lifetime.start.p0(i64 480, ptr nonnull %14) #4
  call void @llvm.memset.p0.i64(ptr noundef nonnull align 8 dereferenceable(480) %14, i8 0, i64 480, i1 false)
  %15 = load i8, ptr @H5_libinit_g, align 1, !tbaa !3, !range !7, !noundef !8
  %16 = trunc nuw i8 %15 to i1
  %17 = load i8, ptr @H5_libterm_g, align 1, !range !7
  %18 = trunc nuw i8 %17 to i1
  %19 = select i1 %16, i1 true, i1 %18
  br i1 %19, label %27, label %20, !prof !9

20:                                               ; preds = %11
  %21 = tail call i32 @H5_init_library() #4
  %22 = icmp slt i32 %21, 0
  br i1 %22, label %23, label %._crit_edge, !prof !10

._crit_edge:                                      ; preds = %20
  %.pre = load i8, ptr @H5_libterm_g, align 1, !range !7
  br label %27

23:                                               ; preds = %20
  %24 = load i64, ptr @H5E_FUNC_g, align 8, !tbaa !11
  %25 = load i64, ptr @H5E_CANTINIT_g, align 8, !tbaa !11
  %26 = tail call i32 (ptr, ptr, i32, i64, i64, ptr, ...) @H5E_printf_stack(ptr noundef nonnull @.str, ptr noundef nonnull @__func__.H5Gget_info_by_idx_async, i32 noundef 830, i64 noundef %24, i64 noundef %25, ptr noundef nonnull @.str.1) #4
  br label %.thread40

27:                                               ; preds = %._crit_edge, %11
  %28 = phi i8 [ %.pre, %._crit_edge ], [ %17, %11 ]
  %29 = load i8, ptr @H5G_init_g, align 1, !tbaa !3, !range !7, !noundef !8
  %30 = trunc nuw i8 %29 to i1
  %31 = trunc nuw i8 %28 to i1
  %32 = select i1 %30, i1 true, i1 %31
  br i1 %32, label %40, label %33, !prof !9

33:                                               ; preds = %27
  store i8 1, ptr @H5G_init_g, align 1, !tbaa !3
  %34 = tail call i32 @H5G__init_package() #4
  %35 = icmp slt i32 %34, 0
  br i1 %35, label %36, label %40, !prof !13

36:                                               ; preds = %33
  store i8 0, ptr @H5G_init_g, align 1, !tbaa !3
  %37 = load i64, ptr @H5E_FUNC_g, align 8, !tbaa !11
  %38 = load i64, ptr @H5E_CANTINIT_g, align 8, !tbaa !11
  %39 = tail call i32 (ptr, ptr, i32, i64, i64, ptr, ...) @H5E_printf_stack(ptr noundef nonnull @.str, ptr noundef nonnull @__func__.H5Gget_info_by_idx_async, i32 noundef 830, i64 noundef %37, i64 noundef %38, ptr noundef nonnull @.str.2) #4
  br label %.thread40

40:                                               ; preds = %27, %33
  %41 = call i32 @H5CX_push(ptr noundef nonnull %14) #4
  %42 = icmp slt i32 %41, 0
  br i1 %42, label %43, label %47, !prof !10

43:                                               ; preds = %40
  %44 = load i64, ptr @H5E_FUNC_g, align 8, !tbaa !11
  %45 = load i64, ptr @H5E_CANTSET_g, align 8, !tbaa !11
  %46 = call i32 (ptr, ptr, i32, i64, i64, ptr, ...) @H5E_printf_stack(ptr noundef nonnull @.str, ptr noundef nonnull @__func__.H5Gget_info_by_idx_async, i32 noundef 830, i64 noundef %44, i64 noundef %45, ptr noundef nonnull @.str.3) #4
  br label %.thread40

47:                                               ; preds = %40
  %48 = call i32 @H5E_clear_stack() #4
  %.not = icmp eq i64 %10, 0
  %spec.select = select i1 %.not, ptr null, ptr %13
  %49 = call fastcc i32 @H5G__get_info_by_idx_api_common(i64 noundef %3, ptr noundef %4, i32 noundef %5, i32 noundef %6, i64 noundef %7, ptr noundef %8, i64 noundef %9, ptr noundef %spec.select, ptr noundef nonnull %12)
  %50 = icmp slt i32 %49, 0
  br i1 %50, label %51, label %55, !prof !14

51:                                               ; preds = %47
  %52 = load i64, ptr @H5E_SYM_g, align 8, !tbaa !11
  %53 = load i64, ptr @H5E_CANTGET_g, align 8, !tbaa !11
  %54 = call i32 (ptr, ptr, i32, i64, i64, ptr, ...) @H5E_printf_stack(ptr noundef nonnull @.str, ptr noundef nonnull @__func__.H5Gget_info_by_idx_async, i32 noundef 839, i64 noundef %52, i64 noundef %53, ptr noundef nonnull @.str.35) #4
  br label %.thread46

55:                                               ; preds = %47
  %56 = load ptr, ptr %13, align 8, !tbaa !19
  %.not31 = icmp eq ptr %56, null
  br i1 %.not31, label %68, label %57

57:                                               ; preds = %55
  %58 = load ptr, ptr %12, align 8, !tbaa !15
  %59 = call ptr @H5VL_obj_get_connector(ptr noundef %58) #4
  %60 = load ptr, ptr %13, align 8, !tbaa !19
  %61 = call i32 (i64, ptr, ptr, ptr, ptr, ...) @H5ES_insert(i64 noundef %10, ptr noundef %59, ptr noundef %60, ptr noundef nonnull @__func__.H5Gget_info_by_idx_async, ptr noundef nonnull @.str.38, ptr noundef nonnull @.str.7, ptr noundef %0, ptr noundef nonnull @.str.8, ptr noundef %1, ptr noundef nonnull @.str.9, i32 noundef %2, ptr noundef nonnull @.str.10, i64 noundef %3, ptr noundef nonnull @.str.39, ptr noundef %4, ptr noundef nonnull @.str.40, i32 noundef %5, ptr noundef nonnull @.str.41, i32 noundef %6, ptr noundef nonnull @.str.42, i64 noundef %7, ptr noundef nonnull @.str.33, ptr noundef %8, ptr noundef nonnull @.str.37, i64 noundef %9, ptr noundef nonnull @.str.15, i64 noundef %10) #4
  %62 = icmp slt i32 %61, 0
  br i1 %62, label %63, label %68, !prof !14

63:                                               ; preds = %57
  %64 = load i64, ptr @H5E_SYM_g, align 8, !tbaa !11
  %65 = load i64, ptr @H5E_CANTINSERT_g, align 8, !tbaa !11
  %66 = call i32 (ptr, ptr, i32, i64, i64, ptr, ...) @H5E_printf_stack(ptr noundef nonnull @.str, ptr noundef nonnull @__func__.H5Gget_info_by_idx_async, i32 noundef 847, i64 noundef %64, i64 noundef %65, ptr noundef nonnull @.str.17) #4
  br label %.thread46

.thread46:                                        ; preds = %63, %51
  %67 = call i32 @H5CX_pop(i1 noundef zeroext true) #4
  br label %.thread40

68:                                               ; preds = %55, %57
  %69 = call i32 @H5CX_pop(i1 noundef zeroext true) #4
  br label %71

.thread40:                                        ; preds = %43, %36, %23, %.thread46
  %70 = call i32 @H5E_dump_api_stack() #4
  br label %71

71:                                               ; preds = %68, %.thread40
  %.0293543 = phi i32 [ -1, %.thread40 ], [ 0, %68 ]
  call void @llvm.lifetime.end.p0(i64 480, ptr nonnull %14) #4
  call void @llvm.lifetime.end.p0(i64 8, ptr nonnull %13) #4
  call void @llvm.lifetime.end.p0(i64 8, ptr nonnull %12) #4
  ret i32 %.0293543
}